; Function Attrs: nounwind uwtable
define range(i32 -344, 1) i32 @wolfSSL_no_ticket_TLSv13(ptr noundef readonly captures(address_is_null) %0) local_unnamed_addr #0 {
  %2 = icmp eq ptr %0, null
  br i1 %2, label %12, label %3

3:                                                ; preds = %1
  %4 = getelementptr inbounds nuw i8, ptr %0, i64 710
  %5 = load i16, ptr %4, align 2
  %6 = tail call i32 @IsAtLeastTLSv1_3(i16 %5) #11
  %.not = icmp eq i32 %6, 0
  br i1 %.not, label %12, label %7

7:                                                ; preds = %3
  %8 = getelementptr inbounds nuw i8, ptr %0, i64 1024
  %9 = load i64, ptr %8, align 8
  %10 = and i64 %9, 48
  %11 = icmp eq i64 %10, 16
  %. = select i1 %11, i32 -344, i32 0
  br label %12

12:                                               ; preds = %7, %1, %3
  %.0 = phi i32 [ -173, %3 ], [ -173, %1 ], [ %., %7 ]
  ret i32 %.0
}